target datalayout = "e-m:e-p270:32:32-p271:32:32-p272:64:64-i64:64-i128:128-f80:128-n8:16:32:64-S128"
target triple = "x86_64-pc-linux-gnu"

%struct.TLS1_PRF = type { ptr, ptr, ptr, ptr, i64, ptr, i64 }

@.str = private unnamed_addr constant [53 x i8] c"../openssl/providers/implementations/kdfs/tls1_prf.c\00", align 1
@__func__.kdf_tls1_prf_derive = private unnamed_addr constant [20 x i8] c"kdf_tls1_prf_derive\00", align 1

; Function Attrs: nounwind uwtable
define internal i32 @tls1_prf_alg(ptr noundef %0, ptr noundef %1, ptr noundef %2, i64 noundef %3, ptr noundef %4, i64 noundef %5, ptr noundef %6, i64 noundef %7) #0 {
  %9 = alloca i32, align 4
  %10 = alloca ptr, align 8
  %11 = alloca ptr, align 8
  %12 = alloca ptr, align 8
  %13 = alloca i64, align 8
  %14 = alloca ptr, align 8
  %15 = alloca i64, align 8
  %16 = alloca ptr, align 8
  %17 = alloca i64, align 8
  %18 = alloca i64, align 8
  %19 = alloca ptr, align 8
  %20 = alloca i64, align 8
  %21 = alloca i64, align 8
  %22 = alloca i32, align 4
  store ptr %0, ptr %10, align 8, !tbaa !33
  store ptr %1, ptr %11, align 8, !tbaa !33
  store ptr %2, ptr %12, align 8, !tbaa !18
  store i64 %3, ptr %13, align 8, !tbaa !19
  store ptr %4, ptr %14, align 8, !tbaa !18
  store i64 %5, ptr %15, align 8, !tbaa !19
  store ptr %6, ptr %16, align 8, !tbaa !18
  store i64 %7, ptr %17, align 8, !tbaa !19
  %23 = load ptr, ptr %11, align 8, !tbaa !33
  %24 = icmp ne ptr %23, null
  br i1 %24, label %25, label %88

25:                                               ; preds = %8
  call void @llvm.lifetime.start.p0(i64 8, ptr %18) #8
  call void @llvm.lifetime.start.p0(i64 8, ptr %19) #8
  call void @llvm.lifetime.start.p0(i64 8, ptr %20) #8
  %26 = load i64, ptr %13, align 8, !tbaa !19
  %27 = add i64 %26, 1
  %28 = udiv i64 %27, 2
  store i64 %28, ptr %20, align 8, !tbaa !19
  call void @llvm.lifetime.start.p0(i64 8, ptr %21) #8
  %29 = load i64, ptr %20, align 8, !tbaa !19
  store i64 %29, ptr %21, align 8, !tbaa !19
  %30 = load ptr, ptr %10, align 8, !tbaa !33
  %31 = load ptr, ptr %12, align 8, !tbaa !18
  %32 = load i64, ptr %20, align 8, !tbaa !19
  %33 = load ptr, ptr %14, align 8, !tbaa !18
  %34 = load i64, ptr %15, align 8, !tbaa !19
  %35 = load ptr, ptr %16, align 8, !tbaa !18
  %36 = load i64, ptr %17, align 8, !tbaa !19
  %37 = call i32 @tls1_prf_P_hash(ptr noundef %30, ptr noundef %31, i64 noundef %32, ptr noundef %33, i64 noundef %34, ptr noundef %35, i64 noundef %36)
  %38 = icmp ne i32 %37, 0
  br i1 %38, label %40, label %39

39:                                               ; preds = %25
  store i32 0, ptr %9, align 4
  store i32 1, ptr %22, align 4
  br label %87

40:                                               ; preds = %25
  %41 = load i64, ptr %17, align 8, !tbaa !19
  %42 = call noalias ptr @CRYPTO_malloc(i64 noundef %41, ptr noundef @.str, i32 noundef 566)
  store ptr %42, ptr %19, align 8, !tbaa !18
  %43 = icmp eq ptr %42, null
  br i1 %43, label %44, label %45

44:                                               ; preds = %40
  store i32 0, ptr %9, align 4
  store i32 1, ptr %22, align 4
  br label %87

45:                                               ; preds = %40
  %46 = load ptr, ptr %11, align 8, !tbaa !33
  %47 = load ptr, ptr %12, align 8, !tbaa !18
  %48 = load i64, ptr %13, align 8, !tbaa !19
  %49 = getelementptr inbounds nuw i8, ptr %47, i64 %48
  %50 = load i64, ptr %21, align 8, !tbaa !19
  %51 = sub i64 0, %50
  %52 = getelementptr inbounds i8, ptr %49, i64 %51
  %53 = load i64, ptr %21, align 8, !tbaa !19
  %54 = load ptr, ptr %14, align 8, !tbaa !18
  %55 = load i64, ptr %15, align 8, !tbaa !19
  %56 = load ptr, ptr %19, align 8, !tbaa !18
  %57 = load i64, ptr %17, align 8, !tbaa !19
  %58 = call i32 @tls1_prf_P_hash(ptr noundef %46, ptr noundef %52, i64 noundef %53, ptr noundef %54, i64 noundef %55, ptr noundef %56, i64 noundef %57)
  %59 = icmp ne i32 %58, 0
  br i1 %59, label %63, label %60

60:                                               ; preds = %45
  %61 = load ptr, ptr %19, align 8, !tbaa !18
  %62 = load i64, ptr %17, align 8, !tbaa !19
  call void @CRYPTO_clear_free(ptr noundef %61, i64 noundef %62, ptr noundef @.str, i32 noundef 571)
  store i32 0, ptr %9, align 4
  store i32 1, ptr %22, align 4
  br label %87

63:                                               ; preds = %45
  store i64 0, ptr %18, align 8, !tbaa !19
  br label %64

64:                                               ; preds = %81, %63
  %65 = load i64, ptr %18, align 8, !tbaa !19
  %66 = load i64, ptr %17, align 8, !tbaa !19
  %67 = icmp ult i64 %65, %66
  br i1 %67, label %68, label %84

68:                                               ; preds = %64
  %69 = load ptr, ptr %19, align 8, !tbaa !18
  %70 = load i64, ptr %18, align 8, !tbaa !19
  %71 = getelementptr inbounds nuw i8, ptr %69, i64 %70
  %72 = load i8, ptr %71, align 1, !tbaa !34
  %73 = zext i8 %72 to i32
  %74 = load ptr, ptr %16, align 8, !tbaa !18
  %75 = load i64, ptr %18, align 8, !tbaa !19
  %76 = getelementptr inbounds nuw i8, ptr %74, i64 %75
  %77 = load i8, ptr %76, align 1, !tbaa !34
  %78 = zext i8 %77 to i32
  %79 = xor i32 %78, %73
  %80 = trunc i32 %79 to i8
  store i8 %80, ptr %76, align 1, !tbaa !34
  br label %81

81:                                               ; preds = %68
  %82 = load i64, ptr %18, align 8, !tbaa !19
  %83 = add i64 %82, 1
  store i64 %83, ptr %18, align 8, !tbaa !19
  br label %64, !llvm.loop !35

84:                                               ; preds = %64
  %85 = load ptr, ptr %19, align 8, !tbaa !18
  %86 = load i64, ptr %17, align 8, !tbaa !19
  call void @CRYPTO_clear_free(ptr noundef %85, i64 noundef %86, ptr noundef @.str, i32 noundef 576)
  store i32 1, ptr %9, align 4
  store i32 1, ptr %22, align 4
  br label %87

87:                                               ; preds = %84, %60, %44, %39
  call void @llvm.lifetime.end.p0(i64 8, ptr %21) #8
  call void @llvm.lifetime.end.p0(i64 8, ptr %20) #8
  call void @llvm.lifetime.end.p0(i64 8, ptr %19) #8
  call void @llvm.lifetime.end.p0(i64 8, ptr %18) #8
  br label %100

88:                                               ; preds = %8
  %89 = load ptr, ptr %10, align 8, !tbaa !33
  %90 = load ptr, ptr %12, align 8, !tbaa !18
  %91 = load i64, ptr %13, align 8, !tbaa !19
  %92 = load ptr, ptr %14, align 8, !tbaa !18
  %93 = load i64, ptr %15, align 8, !tbaa !19
  %94 = load ptr, ptr %16, align 8, !tbaa !18
  %95 = load i64, ptr %17, align 8, !tbaa !19
  %96 = call i32 @tls1_prf_P_hash(ptr noundef %89, ptr noundef %90, i64 noundef %91, ptr noundef %92, i64 noundef %93, ptr noundef %94, i64 noundef %95)
  %97 = icmp ne i32 %96, 0
  br i1 %97, label %99, label %98

98:                                               ; preds = %88
  store i32 0, ptr %9, align 4
  br label %100

99:                                               ; preds = %88
  store i32 1, ptr %9, align 4
  br label %100

100:                                              ; preds = %99, %98, %87
  %101 = load i32, ptr %9, align 4
  ret i32 %101
}

; Function Attrs: nounwind uwtable
define internal i32 @kdf_tls1_prf_derive(ptr noundef %0, ptr noundef %1, i64 noundef %2, ptr noundef %3) #0 {
  %5 = alloca i32, align 4
  %6 = alloca ptr, align 8
  %7 = alloca ptr, align 8
  %8 = alloca i64, align 8
  %9 = alloca ptr, align 8
  %10 = alloca ptr, align 8
  %11 = alloca i32, align 4
  store ptr %0, ptr %6, align 8, !tbaa !3
  store ptr %1, ptr %7, align 8, !tbaa !18
  store i64 %2, ptr %8, align 8, !tbaa !19
  store ptr %3, ptr %9, align 8, !tbaa !20
  call void @llvm.lifetime.start.p0(i64 8, ptr %10) #8
  %12 = load ptr, ptr %6, align 8, !tbaa !3
  store ptr %12, ptr %10, align 8, !tbaa !3
  %13 = call i32 @ossl_prov_is_running()
  %14 = icmp ne i32 %13, 0
  br i1 %14, label %15, label %20

15:                                               ; preds = %4
  %16 = load ptr, ptr %10, align 8, !tbaa !3
  %17 = load ptr, ptr %9, align 8, !tbaa !20
  %18 = call i32 @kdf_tls1_prf_set_ctx_params(ptr noundef %16, ptr noundef %17)
  %19 = icmp ne i32 %18, 0
  br i1 %19, label %21, label %20

20:                                               ; preds = %15, %4
  store i32 0, ptr %5, align 4
  store i32 1, ptr %11, align 4
  br label %65

21:                                               ; preds = %15
  %22 = load ptr, ptr %10, align 8, !tbaa !3
  %23 = getelementptr inbounds nuw %struct.TLS1_PRF, ptr %22, i32 0, i32 1
  %24 = load ptr, ptr %23, align 8, !tbaa !12
  %25 = icmp eq ptr %24, null
  br i1 %25, label %26, label %27

26:                                               ; preds = %21
  call void @ERR_new()
  call void @ERR_set_debug(ptr noundef @.str, i32 noundef 256, ptr noundef @__func__.kdf_tls1_prf_derive)
  call void (i32, i32, ptr, ...) @ERR_set_error(i32 noundef 57, i32 noundef 129, ptr noundef null)
  store i32 0, ptr %5, align 4
  store i32 1, ptr %11, align 4
  br label %65

27:                                               ; preds = %21
  %28 = load ptr, ptr %10, align 8, !tbaa !3
  %29 = getelementptr inbounds nuw %struct.TLS1_PRF, ptr %28, i32 0, i32 3
  %30 = load ptr, ptr %29, align 8, !tbaa !14
  %31 = icmp eq ptr %30, null
  br i1 %31, label %32, label %33

32:                                               ; preds = %27
  call void @ERR_new()
  call void @ERR_set_debug(ptr noundef @.str, i32 noundef 260, ptr noundef @__func__.kdf_tls1_prf_derive)
  call void (i32, i32, ptr, ...) @ERR_set_error(i32 noundef 57, i32 noundef 132, ptr noundef null)
  store i32 0, ptr %5, align 4
  store i32 1, ptr %11, align 4
  br label %65

33:                                               ; preds = %27
  %34 = load ptr, ptr %10, align 8, !tbaa !3
  %35 = getelementptr inbounds nuw %struct.TLS1_PRF, ptr %34, i32 0, i32 6
  %36 = load i64, ptr %35, align 8, !tbaa !17
  %37 = icmp eq i64 %36, 0
  br i1 %37, label %38, label %39

38:                                               ; preds = %33
  call void @ERR_new()
  call void @ERR_set_debug(ptr noundef @.str, i32 noundef 264, ptr noundef @__func__.kdf_tls1_prf_derive)
  call void (i32, i32, ptr, ...) @ERR_set_error(i32 noundef 57, i32 noundef 140, ptr noundef null)
  store i32 0, ptr %5, align 4
  store i32 1, ptr %11, align 4
  br label %65

39:                                               ; preds = %33
  %40 = load i64, ptr %8, align 8, !tbaa !19
  %41 = icmp eq i64 %40, 0
  br i1 %41, label %42, label %43

42:                                               ; preds = %39
  call void @ERR_new()
  call void @ERR_set_debug(ptr noundef @.str, i32 noundef 268, ptr noundef @__func__.kdf_tls1_prf_derive)
  call void (i32, i32, ptr, ...) @ERR_set_error(i32 noundef 57, i32 noundef 105, ptr noundef null)
  store i32 0, ptr %5, align 4
  store i32 1, ptr %11, align 4
  br label %65

43:                                               ; preds = %39
  %44 = load ptr, ptr %10, align 8, !tbaa !3
  %45 = getelementptr inbounds nuw %struct.TLS1_PRF, ptr %44, i32 0, i32 1
  %46 = load ptr, ptr %45, align 8, !tbaa !12
  %47 = load ptr, ptr %10, align 8, !tbaa !3
  %48 = getelementptr inbounds nuw %struct.TLS1_PRF, ptr %47, i32 0, i32 2
  %49 = load ptr, ptr %48, align 8, !tbaa !13
  %50 = load ptr, ptr %10, align 8, !tbaa !3
  %51 = getelementptr inbounds nuw %struct.TLS1_PRF, ptr %50, i32 0, i32 3
  %52 = load ptr, ptr %51, align 8, !tbaa !14
  %53 = load ptr, ptr %10, align 8, !tbaa !3
  %54 = getelementptr inbounds nuw %struct.TLS1_PRF, ptr %53, i32 0, i32 4
  %55 = load i64, ptr %54, align 8, !tbaa !15
  %56 = load ptr, ptr %10, align 8, !tbaa !3
  %57 = getelementptr inbounds nuw %struct.TLS1_PRF, ptr %56, i32 0, i32 5
  %58 = load ptr, ptr %57, align 8, !tbaa !16
  %59 = load ptr, ptr %10, align 8, !tbaa !3
  %60 = getelementptr inbounds nuw %struct.TLS1_PRF, ptr %59, i32 0, i32 6
  %61 = load i64, ptr %60, align 8, !tbaa !17
  %62 = load ptr, ptr %7, align 8, !tbaa !18
  %63 = load i64, ptr %8, align 8, !tbaa !19
  %64 = call i32 @tls1_prf_alg(ptr noundef %46, ptr noundef %49, ptr noundef %52, i64 noundef %55, ptr noundef %58, i64 noundef %61, ptr noundef %62, i64 noundef %63)
  store i32 %64, ptr %5, align 4
  store i32 1, ptr %11, align 4
  br label %65

65:                                               ; preds = %43, %42, %38, %32, %26, %20
  call void @llvm.lifetime.end.p0(i64 8, ptr %10) #8
  %66 = load i32, ptr %5, align 4
  ret i32 %66
}