; Function Attrs: nounwind uwtable
define internal range(i32 0, 2) i32 @kdf_tls1_prf_derive(ptr noundef %0, ptr noundef %1, i64 noundef %2, ptr noundef %3) #0 {
  %5 = tail call i32 @ossl_prov_is_running() #7
  %.not = icmp eq i32 %5, 0
  br i1 %.not, label %tls1_prf_alg.exit, label %6

6:                                                ; preds = %4
  %7 = tail call i32 @kdf_tls1_prf_set_ctx_params(ptr noundef %0, ptr noundef %3)
  %.not19 = icmp eq i32 %7, 0
  br i1 %.not19, label %tls1_prf_alg.exit, label %8

8:                                                ; preds = %6
  %9 = getelementptr inbounds nuw i8, ptr %0, i64 8
  %10 = load ptr, ptr %9, align 8, !tbaa !11
  %11 = icmp eq ptr %10, null
  br i1 %11, label %12, label %13

12:                                               ; preds = %8
  tail call void @ERR_new() #7
  tail call void @ERR_set_debug(ptr noundef nonnull @.str, i32 noundef 256, ptr noundef nonnull @__func__.kdf_tls1_prf_derive) #7
  tail call void (i32, i32, ptr, ...) @ERR_set_error(i32 noundef 57, i32 noundef 129, ptr noundef null) #7
  br label %tls1_prf_alg.exit

13:                                               ; preds = %8
  %14 = getelementptr inbounds nuw i8, ptr %0, i64 24
  %15 = load ptr, ptr %14, align 8, !tbaa !13
  %16 = icmp eq ptr %15, null
  br i1 %16, label %17, label %18

17:                                               ; preds = %13
  tail call void @ERR_new() #7
  tail call void @ERR_set_debug(ptr noundef nonnull @.str, i32 noundef 260, ptr noundef nonnull @__func__.kdf_tls1_prf_derive) #7
  tail call void (i32, i32, ptr, ...) @ERR_set_error(i32 noundef 57, i32 noundef 132, ptr noundef null) #7
  br label %tls1_prf_alg.exit

18:                                               ; preds = %13
  %19 = getelementptr inbounds nuw i8, ptr %0, i64 48
  %20 = load i64, ptr %19, align 8, !tbaa !16
  %21 = icmp eq i64 %20, 0
  br i1 %21, label %22, label %23

22:                                               ; preds = %18
  tail call void @ERR_new() #7
  tail call void @ERR_set_debug(ptr noundef nonnull @.str, i32 noundef 264, ptr noundef nonnull @__func__.kdf_tls1_prf_derive) #7
  tail call void (i32, i32, ptr, ...) @ERR_set_error(i32 noundef 57, i32 noundef 140, ptr noundef null) #7
  br label %tls1_prf_alg.exit

23:                                               ; preds = %18
  %24 = icmp eq i64 %2, 0
  br i1 %24, label %25, label %26

25:                                               ; preds = %23
  tail call void @ERR_new() #7
  tail call void @ERR_set_debug(ptr noundef nonnull @.str, i32 noundef 268, ptr noundef nonnull @__func__.kdf_tls1_prf_derive) #7
  tail call void (i32, i32, ptr, ...) @ERR_set_error(i32 noundef 57, i32 noundef 105, ptr noundef null) #7
  br label %tls1_prf_alg.exit

26:                                               ; preds = %23
  %27 = getelementptr inbounds nuw i8, ptr %0, i64 16
  %28 = load ptr, ptr %27, align 8, !tbaa !12
  %29 = getelementptr inbounds nuw i8, ptr %0, i64 32
  %30 = load i64, ptr %29, align 8, !tbaa !14
  %31 = getelementptr inbounds nuw i8, ptr %0, i64 40
  %32 = load ptr, ptr %31, align 8, !tbaa !15
  %.not.i = icmp eq ptr %28, null
  br i1 %.not.i, label %53, label %33

33:                                               ; preds = %26
  %34 = add i64 %30, 1
  %35 = lshr i64 %34, 1
  %36 = tail call fastcc i32 @tls1_prf_P_hash(ptr noundef nonnull %10, ptr noundef nonnull %15, i64 noundef %35, ptr noundef %32, i64 noundef range(i64 1, 0) %20, ptr noundef %1, i64 noundef range(i64 1, 0) %2)
  %.not43.i = icmp eq i32 %36, 0
  br i1 %.not43.i, label %tls1_prf_alg.exit, label %37

37:                                               ; preds = %33
  %38 = tail call noalias ptr @CRYPTO_malloc(i64 noundef range(i64 1, 0) %2, ptr noundef nonnull @.str, i32 noundef 566) #7
  %39 = icmp eq ptr %38, null
  br i1 %39, label %tls1_prf_alg.exit, label %40

40:                                               ; preds = %37
  %41 = getelementptr inbounds nuw i8, ptr %15, i64 %30
  %42 = sub nsw i64 0, %35
  %43 = getelementptr inbounds i8, ptr %41, i64 %42
  %44 = tail call fastcc i32 @tls1_prf_P_hash(ptr noundef %28, ptr noundef %43, i64 noundef %35, ptr noundef %32, i64 noundef range(i64 1, 0) %20, ptr noundef nonnull %38, i64 noundef range(i64 1, 0) %2)
  %.not44.i = icmp eq i32 %44, 0
  br i1 %.not44.i, label %45, label %.preheader.i

45:                                               ; preds = %40
  tail call void @CRYPTO_clear_free(ptr noundef nonnull %38, i64 noundef range(i64 1, 0) %2, ptr noundef nonnull @.str, i32 noundef 571) #7
  br label %tls1_prf_alg.exit

.preheader.i:                                     ; preds = %40, %.preheader.i
  %.03845.i = phi i64 [ %51, %.preheader.i ], [ 0, %40 ]
  %46 = getelementptr inbounds nuw i8, ptr %38, i64 %.03845.i
  %47 = load i8, ptr %46, align 1, !tbaa !17
  %48 = getelementptr inbounds nuw i8, ptr %1, i64 %.03845.i
  %49 = load i8, ptr %48, align 1, !tbaa !17
  %50 = xor i8 %49, %47
  store i8 %50, ptr %48, align 1, !tbaa !17
  %51 = add nuw i64 %.03845.i, 1
  %exitcond.not.i = icmp eq i64 %51, %2
  br i1 %exitcond.not.i, label %52, label %.preheader.i, !llvm.loop !18

52:                                               ; preds = %.preheader.i
  tail call void @CRYPTO_clear_free(ptr noundef nonnull %38, i64 noundef range(i64 1, 0) %2, ptr noundef nonnull @.str, i32 noundef 576) #7
  br label %tls1_prf_alg.exit

53:                                               ; preds = %26
  %54 = tail call fastcc i32 @tls1_prf_P_hash(ptr noundef nonnull %10, ptr noundef nonnull %15, i64 noundef %30, ptr noundef %32, i64 noundef range(i64 1, 0) %20, ptr noundef %1, i64 noundef range(i64 1, 0) %2)
  br label %tls1_prf_alg.exit

tls1_prf_alg.exit:                                ; preds = %53, %52, %45, %37, %33, %4, %6, %25, %22, %17, %12
  %.0 = phi i32 [ 0, %12 ], [ 0, %17 ], [ 0, %22 ], [ 0, %25 ], [ 0, %6 ], [ 0, %4 ], [ 1, %52 ], [ 0, %45 ], [ 0, %33 ], [ 0, %37 ], [ %54, %53 ]
  ret i32 %.0
}